(dp1
VDubai
p2
(dp3
VMumbai
p4
F1936.04
sVgf
p5
F3
sVBerlin
p6
F4622.04
sVNew York
p7
F11007.91
sVIndore
p8
F2105.02
sVhg
p9
F4
sVGaurav
p10
F7
sVCT
p11
F67
ssg4
(dp12
g2
F1936.04
sg5
F2
sg6
F6292.54
sg7
F12546.450000000001
sg8
F514.99000000000001
sg9
F5
sg10
F8
sg11
F87
ssg5
(dp13
g2
F3
sg4
F2
sg6
F5
sg7
F4
sg8
F1
sg9
F1
sg10
F4
sg11
F34
ssg6
(dp14
g2
F4622.04
sg4
F6292.54
sg5
F5
sg7
F6387.4899999999998
sg8
F6175.0500000000002
sg9
F2
sg10
F5
sg11
F65
ssg7
(dp15
g2
F11007.91
sg4
F12546.450000000001
sg5
F4
sg6
F6387.4899999999998
sg8
F12306.65
sg9
F3
sg10
F6
sg11
F56
ssg8
(dp16
g2
F2105.02
sg4
F514.99000000000001
sg5
F1
sg6
F6175.0500000000002
sg7
F12306.65
sg9
F6
sg10
F9
sg11
F98
ssg9
(dp17
g2
F4
sg4
F5
sg5
F1
sg6
F2
sg7
F3
sg8
F6
sg10
F3
sg11
F0
ssg10
(dp18
g2
F7
sg4
F8
sg5
F4
sg6
F5
sg7
F6
sg8
F9
sg9
F3
sg11
F2
ssg11
(dp19
g2
F67
sg4
F87
sg5
F34
sg6
F65
sg7
F56
sg8
F98
sg9
F0
sg10
F2
ss.