(lp1
(lp2
(VDubai
p3
VMumbai
p4
tp5
aF1936.04
aa(lp6
(g3
Vgf
p7
tp8
aF3
aa(lp9
(g3
VBerlin
p10
tp11
aF4622.04
aa(lp12
(g3
VNew York
p13
tp14
aF11007.91
aa(lp15
(g3
VIndore
p16
tp17
aF2105.02
aa(lp18
(g3
Vhg
p19
tp20
aF4
aa(lp21
(g3
VGaurav
p22
tp23
aF7
aa(lp24
(g3
VCT
p25
tp26
aF67
aa(lp27
(g4
g3
tp28
aF1936.04
aa(lp29
(g4
g7
tp30
aF2
aa(lp31
(g4
g10
tp32
aF6292.54
aa(lp33
(g4
g13
tp34
aF12546.450000000001
aa(lp35
(g4
g16
tp36
aF514.99000000000001
aa(lp37
(g4
g19
tp38
aF5
aa(lp39
(g4
g22
tp40
aF8
aa(lp41
(g4
g25
tp42
aF87
aa(lp43
(g7
g3
tp44
aF3
aa(lp45
(g7
g4
tp46
aF2
aa(lp47
(g7
g10
tp48
aF5
aa(lp49
(g7
g13
tp50
aF4
aa(lp51
(g7
g16
tp52
aF1
aa(lp53
(g7
g19
tp54
aF1
aa(lp55
(g7
g22
tp56
aF4
aa(lp57
(g7
g25
tp58
aF34
aa(lp59
(g10
g3
tp60
aF4622.04
aa(lp61
(g10
g4
tp62
aF6292.54
aa(lp63
(g10
g7
tp64
aF5
aa(lp65
(g10
g13
tp66
aF6387.4899999999998
aa(lp67
(g10
g16
tp68
aF6175.0500000000002
aa(lp69
(g10
g19
tp70
aF2
aa(lp71
(g10
g22
tp72
aF5
aa(lp73
(g10
g25
tp74
aF65
aa(lp75
(g13
g3
tp76
aF11007.91
aa(lp77
(g13
g4
tp78
aF12546.450000000001
aa(lp79
(g13
g7
tp80
aF4
aa(lp81
(g13
g10
tp82
aF6387.4899999999998
aa(lp83
(g13
g16
tp84
aF12306.65
aa(lp85
(g13
g19
tp86
aF3
aa(lp87
(g13
g22
tp88
aF6
aa(lp89
(g13
g25
tp90
aF56
aa(lp91
(g16
g3
tp92
aF2105.02
aa(lp93
(g16
g4
tp94
aF514.99000000000001
aa(lp95
(g16
g7
tp96
aF1
aa(lp97
(g16
g10
tp98
aF6175.0500000000002
aa(lp99
(g16
g13
tp100
aF12306.65
aa(lp101
(g16
g19
tp102
aF6
aa(lp103
(g16
g22
tp104
aF9
aa(lp105
(g16
g25
tp106
aF98
aa(lp107
(g19
g3
tp108
aF4
aa(lp109
(g19
g4
tp110
aF5
aa(lp111
(g19
g7
tp112
aF1
aa(lp113
(g19
g10
tp114
aF2
aa(lp115
(g19
g13
tp116
aF3
aa(lp117
(g19
g16
tp118
aF6
aa(lp119
(g19
g22
tp120
aF3
aa(lp121
(g19
g25
tp122
aF0
aa(lp123
(g22
g3
tp124
aF7
aa(lp125
(g22
g4
tp126
aF8
aa(lp127
(g22
g7
tp128
aF4
aa(lp129
(g22
g10
tp130
aF5
aa(lp131
(g22
g13
tp132
aF6
aa(lp133
(g22
g16
tp134
aF9
aa(lp135
(g22
g19
tp136
aF3
aa(lp137
(g22
g25
tp138
aF2
aa(lp139
(g25
g3
tp140
aF67
aa(lp141
(g25
g4
tp142
aF87
aa(lp143
(g25
g7
tp144
aF34
aa(lp145
(g25
g10
tp146
aF65
aa(lp147
(g25
g13
tp148
aF56
aa(lp149
(g25
g16
tp150
aF98
aa(lp151
(g25
g19
tp152
aF0
aa(lp153
(g25
g22
tp154
aF2
aa.