(lp1
(lp2
VMumbai
p3
aVgf
p4
aF2
aa(lp5
g4
aVIndore
p6
aF1
aa(lp7
g6
aVhg
p8
aF6
aa(lp9
g8
aVCT
p10
aF0
aa(lp11
g10
aVGaurav
p12
aF2
aa(lp13
g12
aVBerlin
p14
aF5
aa(lp15
g14
aVDubai
p16
aF4622.04
aa(lp17
g16
aVNew York
p18
aF11007.91
aa(lp19
g18
aVNew York'
p20
aI0
aa(lp21
g20
aVDubai'
p22
aF11007.91
aa(lp23
VDubai'
p24
aVBerlin'
p25
aF4622.04
aa(lp26
VBerlin'
p27
aVGaurav'
p28
aF5
aa(lp29
VGaurav'
p30
aVCT'
p31
aF2
aa(lp32
VCT'
p33
aVhg'
p34
aF0
aa(lp35
Vhg'
p36
aVIndore'
p37
aF6
aa(lp38
VIndore'
p39
aVgf'
p40
aF1
aa(lp41
Vgf'
p42
aVMumbai'
p43
aF2
aa(lp44
g43
ag3
aI0
aa.