(lp1
(lp2
VMumbai
p3
aVgf
p4
aVNew York
p5
aVDubai
p6
aVBerlin
p7
aVGaurav
p8
aVCT
p9
aVhg
p10
aVIndore
p11
ag3
aa(lp12
g3
aVIndore
p13
ag5
ag6
ag7
ag8
ag9
ag10
aVgf
p14
ag3
aa(lp15
g3
aVhg
p16
ag5
ag6
ag7
ag8
ag9
ag11
ag14
ag3
aa(lp17
g3
aVCT
p18
ag5
ag6
ag7
ag8
ag10
ag11
ag14
ag3
aa(lp19
g3
aVGaurav
p20
ag5
ag6
ag7
ag9
ag10
ag11
ag14
ag3
aa(lp21
g3
aVBerlin
p22
ag5
ag6
ag8
ag9
ag10
ag11
ag14
ag3
aa(lp23
g3
aVDubai
p24
ag5
ag7
ag8
ag9
ag10
ag11
ag14
ag3
aa(lp25
g3
ag4
ag5
ag11
ag10
ag9
ag8
ag7
ag6
ag3
aa(lp26
g3
ag13
ag5
ag14
ag10
ag9
ag8
ag7
ag6
ag3
aa(lp27
g3
ag16
ag5
ag14
ag11
ag9
ag8
ag7
ag6
ag3
aa(lp28
g3
ag18
ag5
ag14
ag11
ag10
ag8
ag7
ag6
ag3
aa(lp29
g3
ag20
ag5
ag14
ag11
ag10
ag9
ag7
ag6
ag3
aa(lp30
g3
ag22
ag5
ag14
ag11
ag10
ag9
ag8
ag6
ag3
aa(lp31
g3
ag24
ag5
ag14
ag11
ag10
ag9
ag8
ag7
ag3
aa(lp32
g3
aVgf
p33
aVDubai
p34
aVNew York
p35
aVBerlin
p36
aVGaurav
p37
aVCT
p38
aVhg
p39
aVIndore
p40
ag3
aa(lp41
g3
aVIndore
p42
ag34
ag35
ag36
ag37
ag38
ag39
aVgf
p43
ag3
aa(lp44
g3
aVhg
p45
ag34
ag35
ag36
ag37
ag38
ag40
ag43
ag3
aa(lp46
g3
aVCT
p47
ag34
ag35
ag36
ag37
ag39
ag40
ag43
ag3
aa(lp48
g3
aVGaurav
p49
ag34
ag35
ag36
ag38
ag39
ag40
ag43
ag3
aa(lp50
g3
aVBerlin
p51
ag34
ag35
ag37
ag38
ag39
ag40
ag43
ag3
aa(lp52
g3
ag35
ag34
ag36
ag37
ag38
ag39
ag40
ag43
ag3
aa(lp53
g3
ag33
ag34
ag40
ag39
ag38
ag37
ag36
ag35
ag3
aa(lp54
g3
ag42
ag34
ag43
ag39
ag38
ag37
ag36
ag35
ag3
aa(lp55
g3
ag45
ag34
ag43
ag40
ag38
ag37
ag36
ag35
ag3
aa(lp56
g3
ag47
ag34
ag43
ag40
ag39
ag37
ag36
ag35
ag3
aa(lp57
g3
ag49
ag34
ag43
ag40
ag39
ag38
ag36
ag35
ag3
aa(lp58
g3
ag51
ag34
ag43
ag40
ag39
ag38
ag37
ag35
ag3
aa(lp59
g3
ag35
ag34
ag43
ag40
ag39
ag38
ag37
ag36
ag3
aa(lp60
g3
aVgf
p61
aVBerlin
p62
aVDubai
p63
aVNew York
p64
aVGaurav
p65
aVCT
p66
aVhg
p67
aVIndore
p68
ag3
aa(lp69
g3
aVIndore
p70
ag62
ag63
ag64
ag65
ag66
ag67
aVgf
p71
ag3
aa(lp72
g3
aVhg
p73
ag62
ag63
ag64
ag65
ag66
ag68
ag71
ag3
aa(lp74
g3
aVCT
p75
ag62
ag63
ag64
ag65
ag67
ag68
ag71
ag3
aa(lp76
g3
aVGaurav
p77
ag62
ag63
ag64
ag66
ag67
ag68
ag71
ag3
aa(lp78
g3
ag64
ag62
ag63
ag65
ag66
ag67
ag68
ag71
ag3
aa(lp79
g3
aVDubai
p80
ag62
ag64
ag65
ag66
ag67
ag68
ag71
ag3
aa(lp81
g3
ag61
ag62
ag68
ag67
ag66
ag65
ag64
ag63
ag3
aa(lp82
g3
ag70
ag62
ag71
ag67
ag66
ag65
ag64
ag63
ag3
aa(lp83
g3
ag73
ag62
ag71
ag68
ag66
ag65
ag64
ag63
ag3
aa(lp84
g3
ag75
ag62
ag71
ag68
ag67
ag65
ag64
ag63
ag3
aa(lp85
g3
ag77
ag62
ag71
ag68
ag67
ag66
ag64
ag63
ag3
aa(lp86
g3
ag64
ag62
ag71
ag68
ag67
ag66
ag65
ag63
ag3
aa(lp87
g3
ag80
ag62
ag71
ag68
ag67
ag66
ag65
ag64
ag3
aa(lp88
g3
aVgf
p89
aVGaurav
p90
aVDubai
p91
aVBerlin
p92
aVNew York
p93
aVCT
p94
aVhg
p95
aVIndore
p96
ag3
aa(lp97
g3
aVIndore
p98
ag90
ag91
ag92
ag93
ag94
ag95
aVgf
p99
ag3
aa(lp100
g3
aVhg
p101
ag90
ag91
ag92
ag93
ag94
ag96
ag99
ag3
aa(lp102
g3
aVCT
p103
ag90
ag91
ag92
ag93
ag95
ag96
ag99
ag3
aa(lp104
g3
ag93
ag90
ag91
ag92
ag94
ag95
ag96
ag99
ag3
aa(lp105
g3
aVBerlin
p106
ag90
ag91
ag93
ag94
ag95
ag96
ag99
ag3
aa(lp107
g3
aVDubai
p108
ag90
ag92
ag93
ag94
ag95
ag96
ag99
ag3
aa(lp109
g3
ag89
ag90
ag96
ag95
ag94
ag93
ag92
ag91
ag3
aa(lp110
g3
ag98
ag90
ag99
ag95
ag94
ag93
ag92
ag91
ag3
aa(lp111
g3
ag101
ag90
ag99
ag96
ag94
ag93
ag92
ag91
ag3
aa(lp112
g3
ag103
ag90
ag99
ag96
ag95
ag93
ag92
ag91
ag3
aa(lp113
g3
ag93
ag90
ag99
ag96
ag95
ag94
ag92
ag91
ag3
aa(lp114
g3
ag106
ag90
ag99
ag96
ag95
ag94
ag93
ag91
ag3
aa(lp115
g3
ag108
ag90
ag99
ag96
ag95
ag94
ag93
ag92
ag3
aa(lp116
g3
aVgf
p117
aVCT
p118
aVDubai
p119
aVBerlin
p120
aVGaurav
p121
aVNew York
p122
aVhg
p123
aVIndore
p124
ag3
aa(lp125
g3
aVIndore
p126
ag118
ag119
ag120
ag121
ag122
ag123
aVgf
p127
ag3
aa(lp128
g3
aVhg
p129
ag118
ag119
ag120
ag121
ag122
ag124
ag127
ag3
aa(lp130
g3
ag122
ag118
ag119
ag120
ag121
ag123
ag124
ag127
ag3
aa(lp131
g3
aVGaurav
p132
ag118
ag119
ag120
ag122
ag123
ag124
ag127
ag3
aa(lp133
g3
aVBerlin
p134
ag118
ag119
ag121
ag122
ag123
ag124
ag127
ag3
aa(lp135
g3
aVDubai
p136
ag118
ag120
ag121
ag122
ag123
ag124
ag127
ag3
aa(lp137
g3
ag117
ag118
ag124
ag123
ag122
ag121
ag120
ag119
ag3
aa(lp138
g3
ag126
ag118
ag127
ag123
ag122
ag121
ag120
ag119
ag3
aa(lp139
g3
ag129
ag118
ag127
ag124
ag122
ag121
ag120
ag119
ag3
aa(lp140
g3
ag122
ag118
ag127
ag124
ag123
ag121
ag120
ag119
ag3
aa(lp141
g3
ag132
ag118
ag127
ag124
ag123
ag122
ag120
ag119
ag3
aa(lp142
g3
ag134
ag118
ag127
ag124
ag123
ag122
ag121
ag119
ag3
aa(lp143
g3
ag136
ag118
ag127
ag124
ag123
ag122
ag121
ag120
ag3
aa(lp144
g3
aVgf
p145
aVhg
p146
aVDubai
p147
aVBerlin
p148
aVGaurav
p149
aVCT
p150
aVNew York
p151
aVIndore
p152
ag3
aa(lp153
g3
aVIndore
p154
ag146
ag147
ag148
ag149
ag150
ag151
aVgf
p155
ag3
aa(lp156
g3
ag151
ag146
ag147
ag148
ag149
ag150
ag152
ag155
ag3
aa(lp157
g3
aVCT
p158
ag146
ag147
ag148
ag149
ag151
ag152
ag155
ag3
aa(lp159
g3
aVGaurav
p160
ag146
ag147
ag148
ag150
ag151
ag152
ag155
ag3
aa(lp161
g3
aVBerlin
p162
ag146
ag147
ag149
ag150
ag151
ag152
ag155
ag3
aa(lp163
g3
aVDubai
p164
ag146
ag148
ag149
ag150
ag151
ag152
ag155
ag3
aa(lp165
g3
ag145
ag146
ag152
ag151
ag150
ag149
ag148
ag147
ag3
aa(lp166
g3
ag154
ag146
ag155
ag151
ag150
ag149
ag148
ag147
ag3
aa(lp167
g3
ag151
ag146
ag155
ag152
ag150
ag149
ag148
ag147
ag3
aa(lp168
g3
ag158
ag146
ag155
ag152
ag151
ag149
ag148
ag147
ag3
aa(lp169
g3
ag160
ag146
ag155
ag152
ag151
ag150
ag148
ag147
ag3
aa(lp170
g3
ag162
ag146
ag155
ag152
ag151
ag150
ag149
ag147
ag3
aa(lp171
g3
ag164
ag146
ag155
ag152
ag151
ag150
ag149
ag148
ag3
aa(lp172
g3
aVgf
p173
aVIndore
p174
aVDubai
p175
aVBerlin
p176
aVGaurav
p177
aVCT
p178
aVhg
p179
aVNew York
p180
ag3
aa(lp181
g3
ag180
ag174
ag175
ag176
ag177
ag178
ag179
aVgf
p182
ag3
aa(lp183
g3
aVhg
p184
ag174
ag175
ag176
ag177
ag178
ag180
ag182
ag3
aa(lp185
g3
aVCT
p186
ag174
ag175
ag176
ag177
ag179
ag180
ag182
ag3
aa(lp187
g3
aVGaurav
p188
ag174
ag175
ag176
ag178
ag179
ag180
ag182
ag3
aa(lp189
g3
aVBerlin
p190
ag174
ag175
ag177
ag178
ag179
ag180
ag182
ag3
aa(lp191
g3
aVDubai
p192
ag174
ag176
ag177
ag178
ag179
ag180
ag182
ag3
aa(lp193
g3
ag173
ag174
ag180
ag179
ag178
ag177
ag176
ag175
ag3
aa(lp194
g3
ag180
ag174
ag182
ag179
ag178
ag177
ag176
ag175
ag3
aa(lp195
g3
ag184
ag174
ag182
ag180
ag178
ag177
ag176
ag175
ag3
aa(lp196
g3
ag186
ag174
ag182
ag180
ag179
ag177
ag176
ag175
ag3
aa(lp197
g3
ag188
ag174
ag182
ag180
ag179
ag178
ag176
ag175
ag3
aa(lp198
g3
ag190
ag174
ag182
ag180
ag179
ag178
ag177
ag175
ag3
aa(lp199
g3
ag192
ag174
ag182
ag180
ag179
ag178
ag177
ag176
ag3
aa(lp200
g3
aVNew York
p201
aVgf
p202
aVDubai
p203
aVBerlin
p204
aVGaurav
p205
aVCT
p206
aVhg
p207
aVIndore
p208
ag3
aa(lp209
g3
aVIndore
p210
ag202
ag203
ag204
ag205
ag206
ag207
ag201
ag3
aa(lp211
g3
aVhg
p212
ag202
ag203
ag204
ag205
ag206
ag208
ag201
ag3
aa(lp213
g3
aVCT
p214
ag202
ag203
ag204
ag205
ag207
ag208
ag201
ag3
aa(lp215
g3
aVGaurav
p216
ag202
ag203
ag204
ag206
ag207
ag208
ag201
ag3
aa(lp217
g3
aVBerlin
p218
ag202
ag203
ag205
ag206
ag207
ag208
ag201
ag3
aa(lp219
g3
aVDubai
p220
ag202
ag204
ag205
ag206
ag207
ag208
ag201
ag3
aa(lp221
g3
ag201
ag202
ag208
ag207
ag206
ag205
ag204
ag203
ag3
aa(lp222
g3
ag210
ag202
ag201
ag207
ag206
ag205
ag204
ag203
ag3
aa(lp223
g3
ag212
ag202
ag201
ag208
ag206
ag205
ag204
ag203
ag3
aa(lp224
g3
ag214
ag202
ag201
ag208
ag207
ag205
ag204
ag203
ag3
aa(lp225
g3
ag216
ag202
ag201
ag208
ag207
ag206
ag204
ag203
ag3
aa(lp226
g3
ag218
ag202
ag201
ag208
ag207
ag206
ag205
ag203
ag3
aa(lp227
g3
ag220
ag202
ag201
ag208
ag207
ag206
ag205
ag204
ag3
aa.