(lp1
(lp2
VMumbai
p3
aVgf
p4
aF2
aa(lp5
g4
aVIndore
p6
aF1
aa(lp7
g6
aVhg
p8
aF6
aa(lp9
g8
aVCT
p10
aF0
aa(lp11
g10
aVGaurav
p12
aF2
aa(lp13
g12
aVBerlin
p14
aF5
aa(lp15
g14
aVDubai
p16
aF4622.04
aa(lp17
g16
aVNew York
p18
aF11007.91
aa.