(lp1
(lp2
(VMumbai
p3
VDubai
p4
F1936.04
tp5
a(g4
VCT
p6
F67
tp7
a(g6
VBerlin
p8
F65
tp9
a(g8
VGaurav
p10
F5
tp11
a(g10
VNew York
p12
F6
tp13
a(g12
Vhg
p14
F3
tp15
a(g14
VIndore
p16
F6
tp17
a(g16
Vgf
p18
F1
tp19
a(g18
g3
F2
tp20
aF2091.04
aa(lp21
(g3
VIndore
p22
F514.99000000000001
tp23
a(g22
Vhg
p24
F6
tp25
a(g24
VDubai
p26
F4
tp27
a(g26
VBerlin
p28
F4622.04
tp29
a(g28
VGaurav
p30
F5
tp31
a(g30
VCT
p32
F2
tp33
a(g32
VNew York
p34
F56
tp35
a(g34
Vgf
p36
F4
tp37
a(g36
g3
F2
tp38
aF5216.0299999999997
aa(lp39
(g3
Vgf
p40
F2
tp41
a(g40
g6
F34
tp42
a(g6
VDubai
p43
F67
tp44
a(g43
g8
F4622.04
tp45
a(g8
g10
F5
tp46
a(g10
g12
F6
tp47
a(g12
g14
F3
tp48
a(g14
g16
F6
tp49
a(g16
g3
F514.99000000000001
tp50
aF5260.0299999999997
aa(lp51
(g3
VIndore
p52
F514.99000000000001
tp53
a(g52
g6
F98
tp54
a(g6
g43
F67
tp55
a(g43
g8
F4622.04
tp56
a(g8
g10
F5
tp57
a(g10
g12
F6
tp58
a(g12
g14
F3
tp59
a(g14
g18
F1
tp60
a(g18
g3
F2
tp61
aF5319.0299999999997
aa(lp62
(g3
VBerlin
p63
F6292.54
tp64
a(g63
g6
F65
tp65
a(g6
g43
F67
tp66
a(g43
g10
F7
tp67
a(g10
g12
F6
tp68
a(g12
g14
F3
tp69
a(g14
g16
F6
tp70
a(g16
g18
F1
tp71
a(g18
g3
F2
tp72
aF6449.54
aa(lp73
(g3
Vhg
p74
F5
tp75
a(g74
VIndore
p76
F6
tp77
a(g76
Vgf
p78
F1
tp79
a(g78
VNew York
p80
F4
tp81
a(g80
VCT
p82
F56
tp83
a(g82
VGaurav
p84
F2
tp85
a(g84
VBerlin
p86
F5
tp87
a(g86
VDubai
p88
F4622.04
tp89
a(g88
g3
F1936.04
tp90
aF6637.0799999999999
aa(lp91
(g3
VGaurav
p92
F8
tp93
a(g92
VNew York
p94
F6
tp95
a(g94
Vgf
p96
F4
tp97
a(g96
VIndore
p98
F1
tp99
a(g98
Vhg
p100
F6
tp101
a(g100
VCT
p102
F0
tp103
a(g102
VBerlin
p104
F65
tp105
a(g104
VDubai
p106
F4622.04
tp107
a(g106
g3
F1936.04
tp108
aF6648.0799999999999
aa(lp109
(g3
VGaurav
p110
F8
tp111
a(g110
g76
F9
tp112
a(g76
g78
F1
tp113
a(g78
g80
F4
tp114
a(g80
Vhg
p115
F3
tp116
a(g115
g82
F0
tp117
a(g82
g86
F65
tp118
a(g86
g88
F4622.04
tp119
a(g88
g3
F1936.04
tp120
aF6648.0799999999999
aa(lp121
(g3
Vhg
p122
F5
tp123
a(g122
g94
F3
tp124
a(g94
g96
F4
tp125
a(g96
g98
F1
tp126
a(g98
g102
F98
tp127
a(g102
VGaurav
p128
F2
tp129
a(g128
g104
F5
tp130
a(g104
g106
F4622.04
tp131
a(g106
g3
F1936.04
tp132
aF6676.0799999999999
aa(lp133
(g3
g40
F2
tp134
a(g40
g6
F34
tp135
a(g6
g16
F98
tp136
a(g16
g14
F6
tp137
a(g14
g12
F3
tp138
a(g12
g10
F6
tp139
a(g10
g8
F5
tp140
a(g8
g43
F4622.04
tp141
a(g43
g3
F1936.04
tp142
aF6712.0799999999999
aa(lp143
(g3
VCT
p144
F87
tp145
a(g144
g94
F56
tp146
a(g94
g96
F4
tp147
a(g96
g98
F1
tp148
a(g98
g100
F6
tp149
a(g100
g128
F3
tp150
a(g128
g104
F5
tp151
a(g104
g106
F4622.04
tp152
a(g106
g3
F1936.04
tp153
aF6720.0799999999999
aa(lp154
(g3
VCT
p155
F87
tp156
a(g155
g76
F98
tp157
a(g76
g78
F1
tp158
a(g78
g80
F4
tp159
a(g80
g115
F3
tp160
a(g115
g84
F3
tp161
a(g84
g86
F5
tp162
a(g86
g88
F4622.04
tp163
a(g88
g3
F1936.04
tp164
aF6759.0799999999999
aa(lp165
(g3
g74
F5
tp166
a(g74
g76
F6
tp167
a(g76
g88
F2105.02
tp168
a(g88
g86
F4622.04
tp169
a(g86
g84
F5
tp170
a(g84
g82
F2
tp171
a(g82
g80
F56
tp172
a(g80
g78
F4
tp173
a(g78
g3
F2
tp174
aF6807.0599999999995
aa(lp175
(g3
g110
F8
tp176
a(g110
g76
F9
tp177
a(g76
g88
F2105.02
tp178
a(g88
g86
F4622.04
tp179
a(g86
g82
F65
tp180
a(g82
g115
F0
tp181
a(g115
g80
F3
tp182
a(g80
g78
F4
tp183
a(g78
g3
F2
tp184
aF6818.0599999999995
aa(lp185
(g3
g155
F87
tp186
a(g155
g76
F98
tp187
a(g76
g88
F2105.02
tp188
a(g88
g86
F4622.04
tp189
a(g86
g84
F5
tp190
a(g84
g115
F3
tp191
a(g115
g80
F3
tp192
a(g80
g78
F4
tp193
a(g78
g3
F2
tp194
aF6929.0599999999995
aa(lp195
(g3
VIndore
p196
F514.99000000000001
tp197
a(g196
Vgf
p198
F1
tp199
a(g198
VNew York
p200
F4
tp201
a(g200
Vhg
p202
F3
tp203
a(g202
VCT
p204
F0
tp205
a(g204
VGaurav
p206
F2
tp207
a(g206
VBerlin
p208
F5
tp209
a(g208
VDubai
p210
F4622.04
tp211
a(g210
g3
F1936.04
tp212
aF7088.0699999999997
aa(lp213
(g3
g22
F514.99000000000001
tp214
a(g22
g24
F6
tp215
a(g24
g36
F1
tp216
a(g36
g34
F4
tp217
a(g34
g32
F56
tp218
a(g32
g30
F2
tp219
a(g30
g28
F5
tp220
a(g28
g26
F4622.04
tp221
a(g26
g3
F1936.04
tp222
aF7147.0699999999997
aa(lp223
(g3
g52
F514.99000000000001
tp224
a(g52
g6
F98
tp225
a(g6
g18
F34
tp226
a(g18
g14
F1
tp227
a(g14
g12
F3
tp228
a(g12
g10
F6
tp229
a(g10
g8
F5
tp230
a(g8
g43
F4622.04
tp231
a(g43
g3
F1936.04
tp232
aF7220.0699999999997
aa(lp233
(g3
g63
F6292.54
tp234
a(g63
g6
F65
tp235
a(g6
g18
F34
tp236
a(g18
g16
F1
tp237
a(g16
g14
F6
tp238
a(g14
g12
F3
tp239
a(g12
g10
F6
tp240
a(g10
g43
F7
tp241
a(g43
g3
F1936.04
tp242
aF8350.5799999999999
aa(lp243
(g3
g4
F1936.04
tp244
a(g4
g6
F67
tp245
a(g6
g18
F34
tp246
a(g18
g16
F1
tp247
a(g16
g14
F6
tp248
a(g14
g12
F3
tp249
a(g12
g10
F6
tp250
a(g10
g8
F5
tp251
a(g8
g3
F6292.54
tp252
aF8350.5799999999999
aa(lp253
(g3
VDubai
p254
F1936.04
tp255
a(g254
VGaurav
p256
F7
tp257
a(g256
VBerlin
p258
F5
tp259
a(g258
VNew York
p260
F6387.4899999999998
tp261
a(g260
VCT
p262
F56
tp263
a(g262
Vhg
p264
F0
tp265
a(g264
VIndore
p266
F6
tp267
a(g266
Vgf
p268
F1
tp269
a(g268
g3
F2
tp270
aF8400.5299999999988
aa(lp271
(g3
VDubai
p272
F1936.04
tp273
a(g272
g76
F2105.02
tp274
a(g76
g86
F6175.0500000000002
tp275
a(g86
g84
F5
tp276
a(g84
g82
F2
tp277
a(g82
g115
F0
tp278
a(g115
g80
F3
tp279
a(g80
g78
F4
tp280
a(g78
g3
F2
tp281
aF10232.110000000001
aa(lp282
(g3
g272
F1936.04
tp283
a(g272
g76
F2105.02
tp284
a(g76
g78
F1
tp285
a(g78
g80
F4
tp286
a(g80
g115
F3
tp287
a(g115
g82
F0
tp288
a(g82
g84
F2
tp289
a(g84
g86
F5
tp290
a(g86
g3
F6292.54
tp291
aF10348.6
aa(lp292
(g3
VGaurav
p293
F8
tp294
a(g293
g6
F2
tp295
a(g6
g43
F67
tp296
a(g43
g8
F4622.04
tp297
a(g8
g12
F6387.4899999999998
tp298
a(g12
g14
F3
tp299
a(g14
g16
F6
tp300
a(g16
g18
F1
tp301
a(g18
g3
F2
tp302
aF11098.529999999999
aa(lp303
(g3
VCT
p304
F87
tp305
a(g304
g256
F2
tp306
a(g256
VDubai
p307
F7
tp308
a(g307
g258
F4622.04
tp309
a(g258
g260
F6387.4899999999998
tp310
a(g260
g264
F3
tp311
a(g264
g266
F6
tp312
a(g266
g268
F1
tp313
a(g268
g3
F2
tp314
aF11117.529999999999
aa(lp315
(g3
Vhg
p316
F5
tp317
a(g316
g256
F3
tp318
a(g256
g307
F7
tp319
a(g307
g258
F4622.04
tp320
a(g258
g260
F6387.4899999999998
tp321
a(g260
g262
F56
tp322
a(g262
g266
F98
tp323
a(g266
g268
F1
tp324
a(g268
g3
F2
tp325
aF11181.529999999999
aa(lp326
(g3
Vgf
p327
F2
tp328
a(g327
g256
F4
tp329
a(g256
g307
F7
tp330
a(g307
g258
F4622.04
tp331
a(g258
g260
F6387.4899999999998
tp332
a(g260
g262
F56
tp333
a(g262
g264
F0
tp334
a(g264
g266
F6
tp335
a(g266
g3
F514.99000000000001
tp336
aF11599.519999999999
aa(lp337
(g3
VIndore
p338
F514.99000000000001
tp339
a(g338
g256
F9
tp340
a(g256
g307
F7
tp341
a(g307
g258
F4622.04
tp342
a(g258
g260
F6387.4899999999998
tp343
a(g260
g262
F56
tp344
a(g262
g264
F0
tp345
a(g264
g268
F1
tp346
a(g268
g3
F2
tp347
aF11599.52
aa(lp348
(g3
VDubai
p349
F1936.04
tp350
a(g349
VBerlin
p351
F4622.04
tp352
a(g351
VNew York
p353
F6387.4899999999998
tp354
a(g353
VGaurav
p355
F6
tp356
a(g355
VCT
p357
F2
tp358
a(g357
Vhg
p359
F0
tp360
a(g359
VIndore
p361
F6
tp362
a(g361
Vgf
p363
F1
tp364
a(g363
g3
F2
tp365
aF12962.57
aa(lp366
(g3
g293
F8
tp367
a(g293
g6
F2
tp368
a(g6
g18
F34
tp369
a(g18
g16
F1
tp370
a(g16
g14
F6
tp371
a(g14
g12
F3
tp372
a(g12
g8
F6387.4899999999998
tp373
a(g8
g43
F4622.04
tp374
a(g43
g3
F1936.04
tp375
aF12999.57
aa(lp376
(g3
g327
F2
tp377
a(g327
g256
F4
tp378
a(g256
g266
F9
tp379
a(g266
g264
F6
tp380
a(g264
g262
F0
tp381
a(g262
g260
F56
tp382
a(g260
g258
F6387.4899999999998
tp383
a(g258
g307
F4622.04
tp384
a(g307
g3
F1936.04
tp385
aF13022.57
aa(lp386
(g3
VGaurav
p387
F8
tp388
a(g387
g351
F5
tp389
a(g351
g363
F5
tp390
a(g363
g361
F1
tp391
a(g361
g359
F6
tp392
a(g359
g357
F0
tp393
a(g357
g353
F56
tp394
a(g353
VDubai
p395
F11007.91
tp396
a(g395
g3
F1936.04
tp397
aF13024.950000000001
aa(lp398
(g3
g304
F87
tp399
a(g304
g256
F2
tp400
a(g256
g268
F4
tp401
a(g268
g266
F1
tp402
a(g266
g264
F6
tp403
a(g264
g260
F3
tp404
a(g260
g258
F6387.4899999999998
tp405
a(g258
g307
F4622.04
tp406
a(g307
g3
F1936.04
tp407
aF13048.57
aa(lp408
(g3
Vhg
p409
F5
tp410
a(g409
g351
F2
tp411
a(g351
g363
F5
tp412
a(g363
g361
F1
tp413
a(g361
g357
F98
tp414
a(g357
g355
F2
tp415
a(g355
g353
F6
tp416
a(g353
g395
F11007.91
tp417
a(g395
g3
F1936.04
tp418
aF13062.950000000001
aa(lp419
(g3
g316
F5
tp420
a(g316
g256
F3
tp421
a(g256
g268
F4
tp422
a(g268
g266
F1
tp423
a(g266
g262
F98
tp424
a(g262
g260
F56
tp425
a(g260
g258
F6387.4899999999998
tp426
a(g258
g307
F4622.04
tp427
a(g307
g3
F1936.04
tp428
aF13112.57
aa(lp429
(g3
VCT
p430
F87
tp431
a(g430
g351
F65
tp432
a(g351
g363
F5
tp433
a(g363
g361
F1
tp434
a(g361
g359
F6
tp435
a(g359
g355
F3
tp436
a(g355
g353
F6
tp437
a(g353
g395
F11007.91
tp438
a(g395
g3
F1936.04
tp439
aF13116.950000000001
aa(lp440
(g3
g338
F514.99000000000001
tp441
a(g338
g256
F9
tp442
a(g256
g268
F4
tp443
a(g268
g264
F1
tp444
a(g264
g262
F0
tp445
a(g262
g260
F56
tp446
a(g260
g258
F6387.4899999999998
tp447
a(g258
g307
F4622.04
tp448
a(g307
g3
F1936.04
tp449
aF13530.560000000001
aa(lp450
(g3
VDubai
p451
F1936.04
tp452
a(g451
g24
F4
tp453
a(g24
g28
F2
tp454
a(g28
g30
F5
tp455
a(g30
g32
F2
tp456
a(g32
g34
F56
tp457
a(g34
VIndore
p458
F12306.65
tp459
a(g458
g36
F1
tp460
a(g36
g3
F2
tp461
aF14314.689999999999
aa(lp462
(g3
VBerlin
p463
F6292.54
tp464
a(g463
g76
F6175.0500000000002
tp465
a(g76
g78
F1
tp466
a(g78
g80
F4
tp467
a(g80
g115
F3
tp468
a(g115
g82
F0
tp469
a(g82
g84
F2
tp470
a(g84
g88
F7
tp471
a(g88
g3
F1936.04
tp472
aF14420.630000000001
aa(lp473
(g3
g463
F6292.54
tp474
a(g463
g76
F6175.0500000000002
tp475
a(g76
g88
F2105.02
tp476
a(g88
g84
F7
tp477
a(g84
g82
F2
tp478
a(g82
g115
F0
tp479
a(g115
g80
F3
tp480
a(g80
g78
F4
tp481
a(g78
g3
F2
tp482
aF14590.610000000001
aa(lp483
(g3
VBerlin
p484
F6292.54
tp485
a(g484
g94
F6387.4899999999998
tp486
a(g94
g96
F4
tp487
a(g96
g98
F1
tp488
a(g98
g100
F6
tp489
a(g100
g102
F0
tp490
a(g102
g128
F2
tp491
a(g128
g106
F7
tp492
a(g106
g3
F1936.04
tp493
aF14636.07
aa(lp494
(g3
g254
F1936.04
tp495
a(g254
g256
F7
tp496
a(g256
g268
F4
tp497
a(g268
g266
F1
tp498
a(g266
g264
F6
tp499
a(g264
g262
F0
tp500
a(g262
g260
F56
tp501
a(g260
g258
F6387.4899999999998
tp502
a(g258
g3
F6292.54
tp503
aF14690.07
aa(lp504
(g3
g387
F8
tp505
a(g387
g351
F5
tp506
a(g351
g395
F4622.04
tp507
a(g395
g353
F11007.91
tp508
a(g353
g357
F56
tp509
a(g357
g359
F0
tp510
a(g359
g361
F6
tp511
a(g361
g363
F1
tp512
a(g363
g3
F2
tp513
aF15707.950000000001
aa(lp514
(g3
g92
F8
tp515
a(g92
g94
F6
tp516
a(g94
g106
F11007.91
tp517
a(g106
g104
F4622.04
tp518
a(g104
g102
F65
tp519
a(g102
g100
F0
tp520
a(g100
g98
F6
tp521
a(g98
g96
F1
tp522
a(g96
g3
F2
tp523
aF15717.950000000001
aa(lp524
(g3
g122
F5
tp525
a(g122
g94
F3
tp526
a(g94
g106
F11007.91
tp527
a(g106
g104
F4622.04
tp528
a(g104
g128
F5
tp529
a(g128
g102
F2
tp530
a(g102
g98
F98
tp531
a(g98
g96
F1
tp532
a(g96
g3
F2
tp533
aF15745.950000000001
aa(lp534
(g3
g409
F5
tp535
a(g409
g351
F2
tp536
a(g351
g395
F4622.04
tp537
a(g395
g353
F11007.91
tp538
a(g353
g355
F6
tp539
a(g355
g357
F2
tp540
a(g357
g361
F98
tp541
a(g361
g363
F1
tp542
a(g363
g3
F2
tp543
aF15745.950000000001
aa(lp544
(g3
g144
F87
tp545
a(g144
g94
F56
tp546
a(g94
g106
F11007.91
tp547
a(g106
g104
F4622.04
tp548
a(g104
g128
F5
tp549
a(g128
g100
F3
tp550
a(g100
g98
F6
tp551
a(g98
g96
F1
tp552
a(g96
g3
F2
tp553
aF15789.950000000001
aa(lp554
(g3
g430
F87
tp555
a(g430
g351
F65
tp556
a(g351
g395
F4622.04
tp557
a(g395
g353
F11007.91
tp558
a(g353
g355
F6
tp559
a(g355
g359
F3
tp560
a(g359
g361
F6
tp561
a(g361
g363
F1
tp562
a(g363
g3
F2
tp563
aF15799.950000000001
aa(lp564
(g3
Vgf
p565
F2
tp566
a(g565
g94
F4
tp567
a(g94
g106
F11007.91
tp568
a(g106
g104
F4622.04
tp569
a(g104
g128
F5
tp570
a(g128
g102
F2
tp571
a(g102
g100
F0
tp572
a(g100
g98
F6
tp573
a(g98
g3
F514.99000000000001
tp574
aF16163.940000000001
aa(lp575
(g3
Vgf
p576
F2
tp577
a(g576
g351
F5
tp578
a(g351
g395
F4622.04
tp579
a(g395
g353
F11007.91
tp580
a(g353
g355
F6
tp581
a(g355
g357
F2
tp582
a(g357
g359
F0
tp583
a(g359
g361
F6
tp584
a(g361
g3
F514.99000000000001
tp585
aF16165.940000000001
aa(lp586
(g3
Vhg
p587
F5
tp588
a(g587
g6
F0
tp589
a(g6
g43
F67
tp590
a(g43
g8
F4622.04
tp591
a(g8
g10
F5
tp592
a(g10
g12
F6
tp593
a(g12
g16
F12306.65
tp594
a(g16
g18
F1
tp595
a(g18
g3
F2
tp596
aF17014.689999999999
aa(lp597
(g3
VCT
p598
F87
tp599
a(g598
g24
F0
tp600
a(g24
g26
F4
tp601
a(g26
g28
F4622.04
tp602
a(g28
g30
F5
tp603
a(g30
g34
F6
tp604
a(g34
g458
F12306.65
tp605
a(g458
g36
F1
tp606
a(g36
g3
F2
tp607
aF17033.689999999999
aa(lp608
(g3
VGaurav
p609
F8
tp610
a(g609
g24
F3
tp611
a(g24
g26
F4
tp612
a(g26
g28
F4622.04
tp613
a(g28
g32
F65
tp614
a(g32
g34
F56
tp615
a(g34
g458
F12306.65
tp616
a(g458
g36
F1
tp617
a(g36
g3
F2
tp618
aF17067.689999999999
aa(lp619
(g3
g260
F12546.450000000001
tp620
a(g260
g256
F6
tp621
a(g256
g307
F7
tp622
a(g307
g258
F4622.04
tp623
a(g258
g262
F65
tp624
a(g262
g264
F0
tp625
a(g264
g266
F6
tp626
a(g266
g268
F1
tp627
a(g268
g3
F2
tp628
aF17255.490000000002
aa(lp629
(g3
g34
F12546.450000000001
tp630
a(g34
g24
F3
tp631
a(g24
g26
F4
tp632
a(g26
g28
F4622.04
tp633
a(g28
g30
F5
tp634
a(g30
g32
F2
tp635
a(g32
g458
F98
tp636
a(g458
g36
F1
tp637
a(g36
g3
F2
tp638
aF17283.490000000002
aa(lp639
(g3
g12
F12546.450000000001
tp640
a(g12
g6
F56
tp641
a(g6
g43
F67
tp642
a(g43
g8
F4622.04
tp643
a(g8
g10
F5
tp644
a(g10
g14
F3
tp645
a(g14
g16
F6
tp646
a(g16
g18
F1
tp647
a(g18
g3
F2
tp648
aF17308.490000000002
aa(lp649
(g3
VBerlin
p650
F6292.54
tp651
a(g650
g256
F5
tp652
a(g256
g307
F7
tp653
a(g307
g260
F11007.91
tp654
a(g260
g262
F56
tp655
a(g262
g264
F0
tp656
a(g264
g266
F6
tp657
a(g266
g268
F1
tp658
a(g268
g3
F2
tp659
aF17377.450000000001
aa(lp660
(g3
VGaurav
p661
F8
tp662
a(g661
VDubai
p663
F7
tp664
a(g663
VNew York
p665
F11007.91
tp666
a(g665
VBerlin
p667
F6387.4899999999998
tp668
a(g667
VCT
p669
F65
tp670
a(g669
Vhg
p671
F0
tp672
a(g671
VIndore
p673
F6
tp674
a(g673
Vgf
p675
F1
tp676
a(g675
g3
F2
tp677
aF17484.400000000001
aa(lp678
(g3
Vhg
p679
F5
tp680
a(g679
g663
F4
tp681
a(g663
g665
F11007.91
tp682
a(g665
g667
F6387.4899999999998
tp683
a(g667
VGaurav
p684
F5
tp685
a(g684
g669
F2
tp686
a(g669
g673
F98
tp687
a(g673
g675
F1
tp688
a(g675
g3
F2
tp689
aF17512.400000000001
aa(lp690
(g3
Vgf
p691
F2
tp692
a(g691
g24
F1
tp693
a(g24
g26
F4
tp694
a(g26
g28
F4622.04
tp695
a(g28
g30
F5
tp696
a(g30
g32
F2
tp697
a(g32
g34
F56
tp698
a(g34
g458
F12306.65
tp699
a(g458
g3
F514.99000000000001
tp700
aF17513.68
aa(lp701
(g3
VCT
p702
F87
tp703
a(g702
g663
F67
tp704
a(g663
g665
F11007.91
tp705
a(g665
g667
F6387.4899999999998
tp706
a(g667
g684
F5
tp707
a(g684
g671
F3
tp708
a(g671
g673
F6
tp709
a(g673
g675
F1
tp710
a(g675
g3
F2
tp711
aF17566.400000000001
aa(lp712
(g3
g196
F514.99000000000001
tp713
a(g196
g198
F1
tp714
a(g198
g210
F3
tp715
a(g210
g208
F4622.04
tp716
a(g208
g206
F5
tp717
a(g206
g204
F2
tp718
a(g204
g202
F0
tp719
a(g202
g200
F3
tp720
a(g200
g3
F12546.450000000001
tp721
aF17697.48
aa(lp722
(g3
g200
F12546.450000000001
tp723
a(g200
g198
F4
tp724
a(g198
g210
F3
tp725
a(g210
g208
F4622.04
tp726
a(g208
g206
F5
tp727
a(g206
g204
F2
tp728
a(g204
g202
F0
tp729
a(g202
VIndore
p730
F6
tp731
a(g730
g3
F514.99000000000001
tp732
aF17703.480000000003
aa(lp733
(g3
Vgf
p734
F2
tp735
a(g734
g663
F3
tp736
a(g663
g665
F11007.91
tp737
a(g665
g667
F6387.4899999999998
tp738
a(g667
g684
F5
tp739
a(g684
g669
F2
tp740
a(g669
g671
F0
tp741
a(g671
g673
F6
tp742
a(g673
g3
F514.99000000000001
tp743
aF17928.390000000003
aa(lp744
(g3
VBerlin
p745
F6292.54
tp746
a(g745
g24
F2
tp747
a(g24
g26
F4
tp748
a(g26
g30
F7
tp749
a(g30
g32
F2
tp750
a(g32
g34
F56
tp751
a(g34
g458
F12306.65
tp752
a(g458
g36
F1
tp753
a(g36
g3
F2
tp754
aF18673.189999999999
aa(lp755
(g3
Vgf
p756
F2
tp757
a(g756
g76
F1
tp758
a(g76
g80
F12306.65
tp759
a(g80
g115
F3
tp760
a(g115
g82
F0
tp761
a(g82
g84
F2
tp762
a(g84
g86
F5
tp763
a(g86
g88
F4622.04
tp764
a(g88
g3
F1936.04
tp765
aF18877.73
aa(lp766
(g3
g565
F2
tp767
a(g565
g94
F4
tp768
a(g94
g98
F12306.65
tp769
a(g98
g100
F6
tp770
a(g100
g102
F0
tp771
a(g102
g128
F2
tp772
a(g128
g104
F5
tp773
a(g104
g106
F4622.04
tp774
a(g106
g3
F1936.04
tp775
aF18883.73
aa(lp776
(g3
g587
F5
tp777
a(g587
g6
F0
tp778
a(g6
g18
F34
tp779
a(g18
g16
F1
tp780
a(g16
g12
F12306.65
tp781
a(g12
g10
F6
tp782
a(g10
g8
F5
tp783
a(g8
g43
F4622.04
tp784
a(g43
g3
F1936.04
tp785
aF18915.73
aa(lp786
(g3
g691
F2
tp787
a(g691
g24
F1
tp788
a(g24
g458
F6
tp789
a(g458
g34
F12306.65
tp790
a(g34
g32
F56
tp791
a(g32
g30
F2
tp792
a(g30
g28
F5
tp793
a(g28
g26
F4622.04
tp794
a(g26
g3
F1936.04
tp795
aF18936.73
aa(lp796
(g3
VGaurav
p797
F8
tp798
a(g797
g198
F4
tp799
a(g198
g200
F4
tp800
a(g200
g730
F12306.65
tp801
a(g730
g202
F6
tp802
a(g202
g204
F0
tp803
a(g204
g208
F65
tp804
a(g208
g210
F4622.04
tp805
a(g210
g3
F1936.04
tp806
aF18951.73
aa(lp807
(g3
g598
F87
tp808
a(g598
g24
F0
tp809
a(g24
g36
F1
tp810
a(g36
g458
F1
tp811
a(g458
g34
F12306.65
tp812
a(g34
g30
F6
tp813
a(g30
g28
F5
tp814
a(g28
g26
F4622.04
tp815
a(g26
g3
F1936.04
tp816
aF18964.73
aa(lp817
(g3
Vhg
p818
F5
tp819
a(g818
g198
F1
tp820
a(g198
g200
F4
tp821
a(g200
g730
F12306.65
tp822
a(g730
g204
F98
tp823
a(g204
g206
F2
tp824
a(g206
g208
F5
tp825
a(g208
g210
F4622.04
tp826
a(g210
g3
F1936.04
tp827
aF18979.73
aa(lp828
(g3
g609
F8
tp829
a(g609
g24
F3
tp830
a(g24
g36
F1
tp831
a(g36
g458
F1
tp832
a(g458
g34
F12306.65
tp833
a(g34
g32
F56
tp834
a(g32
g28
F65
tp835
a(g28
g26
F4622.04
tp836
a(g26
g3
F1936.04
tp837
aF18998.73
aa(lp838
(g3
VCT
p839
F87
tp840
a(g839
g198
F34
tp841
a(g198
g200
F4
tp842
a(g200
g730
F12306.65
tp843
a(g730
g202
F6
tp844
a(g202
g206
F3
tp845
a(g206
g208
F5
tp846
a(g208
g210
F4622.04
tp847
a(g210
g3
F1936.04
tp848
aF19003.73
aa(lp849
(g3
g661
F8
tp850
a(g661
g663
F7
tp851
a(g663
g675
F3
tp852
a(g675
g673
F1
tp853
a(g673
g671
F6
tp854
a(g671
g669
F0
tp855
a(g669
g667
F65
tp856
a(g667
g665
F6387.4899999999998
tp857
a(g665
g3
F12546.450000000001
tp858
aF19023.940000000002
aa(lp859
(g3
g679
F5
tp860
a(g679
g663
F4
tp861
a(g663
g675
F3
tp862
a(g675
g673
F1
tp863
a(g673
g669
F98
tp864
a(g669
g684
F2
tp865
a(g684
g667
F5
tp866
a(g667
g665
F6387.4899999999998
tp867
a(g665
g3
F12546.450000000001
tp868
aF19051.940000000002
aa(lp869
(g3
g702
F87
tp870
a(g702
g663
F67
tp871
a(g663
g675
F3
tp872
a(g675
g673
F1
tp873
a(g673
g671
F6
tp874
a(g671
g684
F3
tp875
a(g684
g667
F5
tp876
a(g667
g665
F6387.4899999999998
tp877
a(g665
g3
F12546.450000000001
tp878
aF19105.940000000002
aa(lp879
(g3
g200
F12546.450000000001
tp880
a(g200
g198
F4
tp881
a(g198
g730
F1
tp882
a(g730
g202
F6
tp883
a(g202
g204
F0
tp884
a(g204
g206
F2
tp885
a(g206
g208
F5
tp886
a(g208
g210
F4622.04
tp887
a(g210
g3
F1936.04
tp888
aF19122.530000000002
aa(lp889
(g3
g349
F1936.04
tp890
a(g349
g351
F4622.04
tp891
a(g351
g363
F5
tp892
a(g363
g361
F1
tp893
a(g361
g359
F6
tp894
a(g359
g357
F0
tp895
a(g357
g355
F2
tp896
a(g355
g353
F6
tp897
a(g353
g3
F12546.450000000001
tp898
aF19124.529999999999
aa(lp899
(g3
g576
F2
tp900
a(g576
g351
F5
tp901
a(g351
g361
F6175.0500000000002
tp902
a(g361
g359
F6
tp903
a(g359
g357
F0
tp904
a(g357
g355
F2
tp905
a(g355
g353
F6
tp906
a(g353
g395
F11007.91
tp907
a(g395
g3
F1936.04
tp908
aF19140
aa(lp909
(g3
g260
F12546.450000000001
tp910
a(g260
g256
F6
tp911
a(g256
g268
F4
tp912
a(g268
g266
F1
tp913
a(g266
g264
F6
tp914
a(g264
g262
F0
tp915
a(g262
g258
F65
tp916
a(g258
g307
F4622.04
tp917
a(g307
g3
F1936.04
tp918
aF19186.530000000002
aa(lp919
(g3
g12
F12546.450000000001
tp920
a(g12
g6
F56
tp921
a(g6
g18
F34
tp922
a(g18
g16
F1
tp923
a(g16
g14
F6
tp924
a(g14
g10
F3
tp925
a(g10
g8
F5
tp926
a(g8
g43
F4622.04
tp927
a(g43
g3
F1936.04
tp928
aF19209.530000000002
aa(lp929
(g3
g34
F12546.450000000001
tp930
a(g34
g24
F3
tp931
a(g24
g36
F1
tp932
a(g36
g458
F1
tp933
a(g458
g32
F98
tp934
a(g32
g30
F2
tp935
a(g30
g28
F5
tp936
a(g28
g26
F4622.04
tp937
a(g26
g3
F1936.04
tp938
aF19214.530000000002
aa(lp939
(g3
VDubai
p940
F1936.04
tp941
a(g940
g94
F11007.91
tp942
a(g94
g96
F4
tp943
a(g96
g98
F1
tp944
a(g98
g100
F6
tp945
a(g100
g102
F0
tp946
a(g102
g128
F2
tp947
a(g128
g104
F5
tp948
a(g104
g3
F6292.54
tp949
aF19254.490000000002
aa(lp950
(g3
g756
F2
tp951
a(g756
g76
F1
tp952
a(g76
g88
F2105.02
tp953
a(g88
g86
F4622.04
tp954
a(g86
g84
F5
tp955
a(g84
g82
F2
tp956
a(g82
g115
F0
tp957
a(g115
g80
F3
tp958
a(g80
g3
F12546.450000000001
tp959
aF19286.510000000002
aa(lp960
(g3
g650
F6292.54
tp961
a(g650
g256
F5
tp962
a(g256
g268
F4
tp963
a(g268
g266
F1
tp964
a(g266
g264
F6
tp965
a(g264
g262
F0
tp966
a(g262
g260
F56
tp967
a(g260
g307
F11007.91
tp968
a(g307
g3
F1936.04
tp969
aF19308.490000000002
aa(lp970
(g3
g940
F1936.04
tp971
a(g940
g94
F11007.91
tp972
a(g94
g104
F6387.4899999999998
tp973
a(g104
g128
F5
tp974
a(g128
g102
F2
tp975
a(g102
g100
F0
tp976
a(g100
g98
F6
tp977
a(g98
g96
F1
tp978
a(g96
g3
F2
tp979
aF19347.440000000002
aa(lp980
(g3
VIndore
p981
F514.99000000000001
tp982
a(g981
g94
F12306.65
tp983
a(g94
g96
F4
tp984
a(g96
g100
F1
tp985
a(g100
g102
F0
tp986
a(g102
g128
F2
tp987
a(g128
g104
F5
tp988
a(g104
g106
F4622.04
tp989
a(g106
g3
F1936.04
tp990
aF19391.720000000001
aa(lp991
(g3
VIndore
p992
F514.99000000000001
tp993
a(g992
g351
F6175.0500000000002
tp994
a(g351
g363
F5
tp995
a(g363
g359
F1
tp996
a(g359
g357
F0
tp997
a(g357
g355
F2
tp998
a(g355
g353
F6
tp999
a(g353
g395
F11007.91
tp1000
a(g395
g3
F1936.04
tp1001
aF19647.990000000002
aa(lp1002
(g3
VIndore
p1003
F514.99000000000001
tp1004
a(g1003
g663
F2105.02
tp1005
a(g663
g665
F11007.91
tp1006
a(g665
g667
F6387.4899999999998
tp1007
a(g667
g684
F5
tp1008
a(g684
g669
F2
tp1009
a(g669
g671
F0
tp1010
a(g671
g675
F1
tp1011
a(g675
g3
F2
tp1012
aF20025.41
aa(lp1013
(g3
VDubai
p1014
F1936.04
tp1015
a(g1014
g198
F3
tp1016
a(g198
g200
F4
tp1017
a(g200
g730
F12306.65
tp1018
a(g730
g202
F6
tp1019
a(g202
g204
F0
tp1020
a(g204
g206
F2
tp1021
a(g206
g208
F5
tp1022
a(g208
g3
F6292.54
tp1023
aF20555.23
aa(lp1024
(g3
VBerlin
p1025
F6292.54
tp1026
a(g1025
g198
F5
tp1027
a(g198
g200
F4
tp1028
a(g200
g730
F12306.65
tp1029
a(g730
g202
F6
tp1030
a(g202
g204
F0
tp1031
a(g204
g206
F2
tp1032
a(g206
g210
F7
tp1033
a(g210
g3
F1936.04
tp1034
aF20559.23
aa(lp1035
(g3
g745
F6292.54
tp1036
a(g745
g24
F2
tp1037
a(g24
g36
F1
tp1038
a(g36
g458
F1
tp1039
a(g458
g34
F12306.65
tp1040
a(g34
g32
F56
tp1041
a(g32
g30
F2
tp1042
a(g30
g26
F7
tp1043
a(g26
g3
F1936.04
tp1044
aF20604.23
aa(lp1045
(g3
g451
F1936.04
tp1046
a(g451
g24
F4
tp1047
a(g24
g36
F1
tp1048
a(g36
g458
F1
tp1049
a(g458
g34
F12306.65
tp1050
a(g34
g32
F56
tp1051
a(g32
g30
F2
tp1052
a(g30
g28
F5
tp1053
a(g28
g3
F6292.54
tp1054
aF20604.23
aa(lp1055
(g3
g353
F12546.450000000001
tp1056
a(g353
g351
F6387.4899999999998
tp1057
a(g351
g363
F5
tp1058
a(g363
g361
F1
tp1059
a(g361
g359
F6
tp1060
a(g359
g357
F0
tp1061
a(g357
g355
F2
tp1062
a(g355
g395
F7
tp1063
a(g395
g3
F1936.04
tp1064
aF20890.980000000003
aa(lp1065
(g3
g734
F2
tp1066
a(g734
g663
F3
tp1067
a(g663
g673
F2105.02
tp1068
a(g673
g671
F6
tp1069
a(g671
g669
F0
tp1070
a(g669
g684
F2
tp1071
a(g684
g667
F5
tp1072
a(g667
g665
F6387.4899999999998
tp1073
a(g665
g3
F12546.450000000001
tp1074
aF21056.959999999999
aa(lp1075
(g3
g1003
F514.99000000000001
tp1076
a(g1003
g663
F2105.02
tp1077
a(g663
g675
F3
tp1078
a(g675
g671
F1
tp1079
a(g671
g669
F0
tp1080
a(g669
g684
F2
tp1081
a(g684
g667
F5
tp1082
a(g667
g665
F6387.4899999999998
tp1083
a(g665
g3
F12546.450000000001
tp1084
aF21564.950000000001
aa(lp1085
(g3
VBerlin
p1086
F6292.54
tp1087
a(g1086
g663
F4622.04
tp1088
a(g663
g665
F11007.91
tp1089
a(g665
g684
F6
tp1090
a(g684
g669
F2
tp1091
a(g669
g671
F0
tp1092
a(g671
g673
F6
tp1093
a(g673
g675
F1
tp1094
a(g675
g3
F2
tp1095
aF21939.489999999998
aa(lp1096
(g3
g992
F514.99000000000001
tp1097
a(g992
g351
F6175.0500000000002
tp1098
a(g351
g395
F4622.04
tp1099
a(g395
g353
F11007.91
tp1100
a(g353
g355
F6
tp1101
a(g355
g357
F2
tp1102
a(g357
g359
F0
tp1103
a(g359
g363
F1
tp1104
a(g363
g3
F2
tp1105
aF22330.989999999998
aa(lp1106
(g3
g1086
F6292.54
tp1107
a(g1086
g663
F4622.04
tp1108
a(g663
g675
F3
tp1109
a(g675
g673
F1
tp1110
a(g673
g671
F6
tp1111
a(g671
g669
F0
tp1112
a(g669
g684
F2
tp1113
a(g684
g665
F6
tp1114
a(g665
g3
F12546.450000000001
tp1115
aF23479.029999999999
aa(lp1116
(g3
g353
F12546.450000000001
tp1117
a(g353
g351
F6387.4899999999998
tp1118
a(g351
g395
F4622.04
tp1119
a(g395
g355
F7
tp1120
a(g355
g357
F2
tp1121
a(g357
g359
F0
tp1122
a(g359
g361
F6
tp1123
a(g361
g363
F1
tp1124
a(g363
g3
F2
tp1125
aF23573.980000000003
aa(lp1126
(g3
g484
F6292.54
tp1127
a(g484
g94
F6387.4899999999998
tp1128
a(g94
g106
F11007.91
tp1129
a(g106
g128
F7
tp1130
a(g128
g102
F2
tp1131
a(g102
g100
F0
tp1132
a(g100
g98
F6
tp1133
a(g98
g96
F1
tp1134
a(g96
g3
F2
tp1135
aF23705.939999999999
aa(lp1136
(g3
g1014
F1936.04
tp1137
a(g1014
g198
F3
tp1138
a(g198
g208
F5
tp1139
a(g208
g206
F5
tp1140
a(g206
g204
F2
tp1141
a(g204
g202
F0
tp1142
a(g202
g730
F6
tp1143
a(g730
g200
F12306.65
tp1144
a(g200
g3
F12546.450000000001
tp1145
aF26810.139999999999
aa(lp1146
(g3
g665
F12546.450000000001
tp1147
a(g665
g663
F11007.91
tp1148
a(g663
g667
F4622.04
tp1149
a(g667
g684
F5
tp1150
a(g684
g669
F2
tp1151
a(g669
g671
F0
tp1152
a(g671
g673
F6
tp1153
a(g673
g675
F1
tp1154
a(g675
g3
F2
tp1155
aF28192.400000000001
aa(lp1156
(g3
g981
F514.99000000000001
tp1157
a(g981
g94
F12306.65
tp1158
a(g94
g106
F11007.91
tp1159
a(g106
g104
F4622.04
tp1160
a(g104
g128
F5
tp1161
a(g128
g102
F2
tp1162
a(g102
g100
F0
tp1163
a(g100
g96
F1
tp1164
a(g96
g3
F2
tp1165
aF28461.59
aa(lp1166
(g3
g797
F8
tp1167
a(g797
g198
F4
tp1168
a(g198
g210
F3
tp1169
a(g210
g208
F4622.04
tp1170
a(g208
g204
F65
tp1171
a(g204
g202
F0
tp1172
a(g202
g730
F6
tp1173
a(g730
g200
F12306.65
tp1174
a(g200
g3
F12546.450000000001
tp1175
aF29561.139999999999
aa(lp1176
(g3
g818
F5
tp1177
a(g818
g198
F1
tp1178
a(g198
g210
F3
tp1179
a(g210
g208
F4622.04
tp1180
a(g208
g206
F5
tp1181
a(g206
g204
F2
tp1182
a(g204
g730
F98
tp1183
a(g730
g200
F12306.65
tp1184
a(g200
g3
F12546.450000000001
tp1185
aF29589.139999999999
aa(lp1186
(g3
g839
F87
tp1187
a(g839
g198
F34
tp1188
a(g198
g210
F3
tp1189
a(g210
g208
F4622.04
tp1190
a(g208
g206
F5
tp1191
a(g206
g202
F3
tp1192
a(g202
g730
F6
tp1193
a(g730
g200
F12306.65
tp1194
a(g200
g3
F12546.450000000001
tp1195
aF29613.139999999999
aa(lp1196
(g3
g665
F12546.450000000001
tp1197
a(g665
g663
F11007.91
tp1198
a(g663
g675
F3
tp1199
a(g675
g673
F1
tp1200
a(g673
g671
F6
tp1201
a(g671
g669
F0
tp1202
a(g669
g684
F2
tp1203
a(g684
g667
F5
tp1204
a(g667
g3
F6292.54
tp1205
aF29863.900000000001
aa(lp1206
(g3
g1025
F6292.54
tp1207
a(g1025
g198
F5
tp1208
a(g198
g210
F3
tp1209
a(g210
g206
F7
tp1210
a(g206
g204
F2
tp1211
a(g204
g202
F0
tp1212
a(g202
g730
F6
tp1213
a(g730
g200
F12306.65
tp1214
a(g200
g3
F12546.450000000001
tp1215
aF31168.639999999999
aa(lp1216
(g3
g80
F12546.450000000001
tp1217
a(g80
g76
F12306.65
tp1218
a(g76
g78
F1
tp1219
a(g78
g115
F1
tp1220
a(g115
g82
F0
tp1221
a(g82
g84
F2
tp1222
a(g84
g86
F5
tp1223
a(g86
g88
F4622.04
tp1224
a(g88
g3
F1936.04
tp1225
aF31420.18
aa(lp1226
(g3
g80
F12546.450000000001
tp1227
a(g80
g76
F12306.65
tp1228
a(g76
g88
F2105.02
tp1229
a(g88
g86
F4622.04
tp1230
a(g86
g84
F5
tp1231
a(g84
g82
F2
tp1232
a(g82
g115
F0
tp1233
a(g115
g78
F1
tp1234
a(g78
g3
F2
tp1235
aF31590.16
aa.